Certificate:
    Data:
        Version: 3 (0x2)
        Serial Number:
            ca:74:ab:e1:63:a5:87:39
        Signature Algorithm: sha1WithRSAEncryption
        Issuer: CN=localhost
        Validity
            Not Before: Sep 19 01:12:21 2018 GMT
            Not After : Oct 19 01:12:21 2018 GMT
        Subject: CN=localhost
        Subject Public Key Info:
            Public Key Algorithm: rsaEncryption
            RSA Public Key: (1024 bit)
                Modulus (1024 bit):
                    00:ab:1e:7c:2f:2d:2d:fc:49:4b:1e:3e:ea:a4:a9:
                    2f:7d:d3:e3:e9:18:58:80:28:a8:57:69:3f:1c:cb:
                    4e:d2:18:de:38:5f:99:cb:7c:c3:6e:24:39:ac:33:
                    52:a2:3b:5a:5b:17:10:1f:c0:21:c0:22:64:3c:bc:
                    95:3c:41:0c:db:68:ea:7b:f9:fd:c5:54:e8:8c:82:
                    09:af:a4:db:db:c4:2c:5a:13:00:6e:25:2c:6f:c7:
                    ef:4e:fc:88:0b:3b:87:00:9b:92:9c:b3:cd:f2:82:
                    e1:d8:af:27:b6:1f:ac:5a:ba:9a:a1:fe:4c:bc:44:
                    54:42:d8:77:04:d9:65:7b:85
                Exponent: 65537 (0x10001)
        X509v3 extensions:
            X509v3 Subject Key Identifier: 
                28:B0:EC:8A:64:94:C2:AF:4B:76:AD:16:AA:F4:F5:B5:93:6B:EB:5A
            X509v3 Authority Key Identifier: 
                keyid:28:B0:EC:8A:64:94:C2:AF:4B:76:AD:16:AA:F4:F5:B5:93:6B:EB:5A
                DirName:/CN=localhost
                serial:CA:74:AB:E1:63:A5:87:39

            X509v3 Basic Constraints: 
                CA:TRUE
    Signature Algorithm: sha1WithRSAEncryption
        a3:f5:15:a8:4c:8d:87:ab:22:7d:cd:e4:10:69:c3:d3:e3:83:
        35:a1:ef:11:8d:65:5b:9c:2b:f9:a9:63:1f:94:76:ce:c0:90:
        76:64:85:de:a6:89:f4:ad:e9:05:19:54:30:f5:1a:66:ba:f3:
        21:cf:e6:18:aa:e4:cb:9f:a3:c0:4c:2d:62:ca:3a:62:79:3a:
        5c:41:0e:30:a2:43:d9:1e:b1:ec:2b:18:47:73:6b:c7:fd:50:
        b7:d9:95:d9:53:ab:45:43:16:bf:da:c2:92:75:ae:2b:52:33:
        c0:ab:30:8b:14:5c:13:d9:0a:7e:76:18:22:04:5e:42:5f:47:
        5c:7d
-----BEGIN CERTIFICATE-----
MIICGzCCAYSgAwIBAgIJAMp0q+FjpYc5MA0GCSqGSIb3DQEBBQUAMBQxEjAQBgNV
BAMTCWxvY2FsaG9zdDAeFw0xODA5MTkwMTEyMjFaFw0xODEwMTkwMTEyMjFaMBQx
EjAQBgNVBAMTCWxvY2FsaG9zdDCBnzANBgkqhkiG9w0BAQEFAAOBjQAwgYkCgYEA
qx58Ly0t/ElLHj7qpKkvfdPj6RhYgCioV2k/HMtO0hjeOF+Zy3zDbiQ5rDNSojta
WxcQH8AhwCJkPLyVPEEM22jqe/n9xVTojIIJr6Tb28QsWhMAbiUsb8fvTvyICzuH
AJuSnLPN8oLh2K8nth+sWrqaof5MvERUQth3BNlle4UCAwEAAaN1MHMwHQYDVR0O
BBYEFCiw7IpklMKvS3atFqr09bWTa+taMEQGA1UdIwQ9MDuAFCiw7IpklMKvS3at
Fqr09bWTa+taoRikFjAUMRIwEAYDVQQDEwlsb2NhbGhvc3SCCQDKdKvhY6WHOTAM
BgNVHRMEBTADAQH/MA0GCSqGSIb3DQEBBQUAA4GBAKP1FahMjYerIn3N5BBpw9Pj
gzWh7xGNZVucK/mpYx+Uds7AkHZkhd6mifSt6QUZVDD1Gma68yHP5hiq5Mufo8BM
LWLKOmJ5OlxBDjCiQ9kesewrGEdza8f9ULfZldlTq0VDFr/awpJ1ritSM8CrMIsU
XBPZCn52GCIEXkJfR1x9
-----END CERTIFICATE-----
